; Function Attrs: nounwind uwtable
define internal noundef i64 @ExecJustAssignScanVar(ptr noundef readonly captures(none) %0, ptr noundef readonly captures(none) %1, ptr readnone captures(none) %2) #0 {
  %4 = getelementptr inbounds nuw i8, ptr %1, i64 8
  %5 = load ptr, ptr %4, align 8
  %6 = getelementptr inbounds nuw i8, ptr %0, i64 24
  %7 = load ptr, ptr %6, align 8
  %8 = getelementptr inbounds nuw i8, ptr %7, i64 88
  %9 = getelementptr inbounds nuw i8, ptr %7, i64 92
  %10 = load i32, ptr %9, align 4
  %11 = add i32 %10, 1
  %12 = load i32, ptr %8, align 8
  %13 = getelementptr inbounds nuw i8, ptr %0, i64 16
  %14 = load ptr, ptr %13, align 8
  %15 = getelementptr inbounds nuw i8, ptr %14, i64 32
  %16 = load ptr, ptr %15, align 8
  %17 = getelementptr inbounds nuw i8, ptr %5, i64 6
  %18 = load i16, ptr %17, align 2
  %19 = sext i16 %18 to i32
  %20 = icmp sgt i32 %11, %19
  br i1 %20, label %slot_getsomeattrs.exit.i, label %slot_getattr.exit

slot_getsomeattrs.exit.i:                         ; preds = %3
  tail call void @slot_getsomeattrs_int(ptr noundef nonnull %5, i32 noundef %11) #18
  br label %slot_getattr.exit

slot_getattr.exit:                                ; preds = %3, %slot_getsomeattrs.exit.i
  %21 = sext i32 %12 to i64
  %22 = getelementptr inbounds i8, ptr %16, i64 %21
  %23 = getelementptr inbounds nuw i8, ptr %5, i64 32
  %24 = load ptr, ptr %23, align 8
  %25 = sext i32 %10 to i64
  %26 = getelementptr inbounds i8, ptr %24, i64 %25
  %27 = load i8, ptr %26, align 1, !range !8, !noundef !9
  store i8 %27, ptr %22, align 1
  %28 = getelementptr inbounds nuw i8, ptr %5, i64 24
  %29 = load ptr, ptr %28, align 8
  %30 = getelementptr inbounds i64, ptr %29, i64 %25
  %31 = load i64, ptr %30, align 8
  %32 = getelementptr inbounds nuw i8, ptr %14, i64 24
  %33 = load ptr, ptr %32, align 8
  %34 = getelementptr inbounds i64, ptr %33, i64 %21
  store i64 %31, ptr %34, align 8
  ret i64 0
}